target datalayout = "e-m:e-p270:32:32-p271:32:32-p272:64:64-i64:64-i128:128-f80:128-n8:16:32:64-S128"
target triple = "x86_64-pc-linux-gnu"

%struct.jpeg_decompress_struct = type { ptr, ptr, ptr, ptr, i32, i32, ptr, i32, i32, i32, i32, i32, i32, i32, double, i32, i32, i32, i32, i32, i32, i32, i32, i32, i32, i32, i32, i32, i32, i32, i32, i32, i32, ptr, i32, i32, i32, i32, i32, ptr, [4 x ptr], [4 x ptr], [4 x ptr], i32, ptr, i32, i32, [16 x i8], [16 x i8], [16 x i8], i32, i32, i8, i8, i8, i16, i16, i32, i8, i32, ptr, i32, i32, i32, i32, ptr, i32, [4 x ptr], i32, i32, i32, [10 x i32], i32, i32, i32, i32, i32, ptr, ptr, ptr, ptr, ptr, ptr, ptr, ptr, ptr, ptr, ptr }
%struct.jpeg_error_mgr = type { ptr, ptr, ptr, ptr, ptr, i32, %union.anon, i32, i64, ptr, i32, ptr, i32, i32 }
%union.anon = type { [8 x i32], [48 x i8] }
%struct.jpeg_memory_mgr = type { ptr, ptr, ptr, ptr, ptr, ptr, ptr, ptr, ptr, ptr, ptr, i64, i64 }
%struct.my_cquantizer = type { %struct.jpeg_color_quantizer, ptr, i32, ptr, i32, ptr, i32, ptr }
%struct.jpeg_color_quantizer = type { ptr, ptr, ptr, ptr, ptr }

; Function Attrs: nounwind uwtable
define internal void @init_error_limit(ptr noundef %0) #0 {
  %2 = alloca ptr, align 8
  %3 = alloca ptr, align 8
  %4 = alloca ptr, align 8
  %5 = alloca i32, align 4
  %6 = alloca i32, align 4
  store ptr %0, ptr %2, align 8, !tbaa !3
  call void @llvm.lifetime.start.p0(i64 8, ptr %3) #3
  %7 = load ptr, ptr %2, align 8, !tbaa !3
  %8 = getelementptr inbounds nuw %struct.jpeg_decompress_struct, ptr %7, i32 0, i32 87
  %9 = load ptr, ptr %8, align 8, !tbaa !42
  store ptr %9, ptr %3, align 8, !tbaa !41
  call void @llvm.lifetime.start.p0(i64 8, ptr %4) #3
  call void @llvm.lifetime.start.p0(i64 4, ptr %5) #3
  call void @llvm.lifetime.start.p0(i64 4, ptr %6) #3
  %10 = load ptr, ptr %2, align 8, !tbaa !3
  %11 = getelementptr inbounds nuw %struct.jpeg_decompress_struct, ptr %10, i32 0, i32 1
  %12 = load ptr, ptr %11, align 8, !tbaa !38
  %13 = getelementptr inbounds nuw %struct.jpeg_memory_mgr, ptr %12, i32 0, i32 0
  %14 = load ptr, ptr %13, align 8, !tbaa !39
  %15 = load ptr, ptr %2, align 8, !tbaa !3
  %16 = call ptr %14(ptr noundef %15, i32 noundef 1, i64 noundef 2044)
  store ptr %16, ptr %4, align 8, !tbaa !77
  %17 = load ptr, ptr %4, align 8, !tbaa !77
  %18 = getelementptr inbounds i32, ptr %17, i64 255
  store ptr %18, ptr %4, align 8, !tbaa !77
  %19 = load ptr, ptr %4, align 8, !tbaa !77
  %20 = load ptr, ptr %3, align 8, !tbaa !41
  %21 = getelementptr inbounds nuw %struct.my_cquantizer, ptr %20, i32 0, i32 7
  store ptr %19, ptr %21, align 8, !tbaa !50
  store i32 0, ptr %6, align 4, !tbaa !57
  store i32 0, ptr %5, align 4, !tbaa !57
  br label %22

22:                                               ; preds = %38, %1
  %23 = load i32, ptr %5, align 4, !tbaa !57
  %24 = icmp slt i32 %23, 16
  br i1 %24, label %25, label %43

25:                                               ; preds = %22
  %26 = load i32, ptr %6, align 4, !tbaa !57
  %27 = load ptr, ptr %4, align 8, !tbaa !77
  %28 = load i32, ptr %5, align 4, !tbaa !57
  %29 = sext i32 %28 to i64
  %30 = getelementptr inbounds i32, ptr %27, i64 %29
  store i32 %26, ptr %30, align 4, !tbaa !57
  %31 = load i32, ptr %6, align 4, !tbaa !57
  %32 = sub nsw i32 0, %31
  %33 = load ptr, ptr %4, align 8, !tbaa !77
  %34 = load i32, ptr %5, align 4, !tbaa !57
  %35 = sub nsw i32 0, %34
  %36 = sext i32 %35 to i64
  %37 = getelementptr inbounds i32, ptr %33, i64 %36
  store i32 %32, ptr %37, align 4, !tbaa !57
  br label %38

38:                                               ; preds = %25
  %39 = load i32, ptr %5, align 4, !tbaa !57
  %40 = add nsw i32 %39, 1
  store i32 %40, ptr %5, align 4, !tbaa !57
  %41 = load i32, ptr %6, align 4, !tbaa !57
  %42 = add nsw i32 %41, 1
  store i32 %42, ptr %6, align 4, !tbaa !57
  br label %22, !llvm.loop !78

43:                                               ; preds = %22
  br label %44

44:                                               ; preds = %60, %43
  %45 = load i32, ptr %5, align 4, !tbaa !57
  %46 = icmp slt i32 %45, 48
  br i1 %46, label %47, label %69

47:                                               ; preds = %44
  %48 = load i32, ptr %6, align 4, !tbaa !57
  %49 = load ptr, ptr %4, align 8, !tbaa !77
  %50 = load i32, ptr %5, align 4, !tbaa !57
  %51 = sext i32 %50 to i64
  %52 = getelementptr inbounds i32, ptr %49, i64 %51
  store i32 %48, ptr %52, align 4, !tbaa !57
  %53 = load i32, ptr %6, align 4, !tbaa !57
  %54 = sub nsw i32 0, %53
  %55 = load ptr, ptr %4, align 8, !tbaa !77
  %56 = load i32, ptr %5, align 4, !tbaa !57
  %57 = sub nsw i32 0, %56
  %58 = sext i32 %57 to i64
  %59 = getelementptr inbounds i32, ptr %55, i64 %58
  store i32 %54, ptr %59, align 4, !tbaa !57
  br label %60

60:                                               ; preds = %47
  %61 = load i32, ptr %5, align 4, !tbaa !57
  %62 = add nsw i32 %61, 1
  store i32 %62, ptr %5, align 4, !tbaa !57
  %63 = load i32, ptr %5, align 4, !tbaa !57
  %64 = and i32 %63, 1
  %65 = icmp ne i32 %64, 0
  %66 = select i1 %65, i32 0, i32 1
  %67 = load i32, ptr %6, align 4, !tbaa !57
  %68 = add nsw i32 %67, %66
  store i32 %68, ptr %6, align 4, !tbaa !57
  br label %44, !llvm.loop !79

69:                                               ; preds = %44
  br label %70

70:                                               ; preds = %86, %69
  %71 = load i32, ptr %5, align 4, !tbaa !57
  %72 = icmp sle i32 %71, 255
  br i1 %72, label %73, label %89

73:                                               ; preds = %70
  %74 = load i32, ptr %6, align 4, !tbaa !57
  %75 = load ptr, ptr %4, align 8, !tbaa !77
  %76 = load i32, ptr %5, align 4, !tbaa !57
  %77 = sext i32 %76 to i64
  %78 = getelementptr inbounds i32, ptr %75, i64 %77
  store i32 %74, ptr %78, align 4, !tbaa !57
  %79 = load i32, ptr %6, align 4, !tbaa !57
  %80 = sub nsw i32 0, %79
  %81 = load ptr, ptr %4, align 8, !tbaa !77
  %82 = load i32, ptr %5, align 4, !tbaa !57
  %83 = sub nsw i32 0, %82
  %84 = sext i32 %83 to i64
  %85 = getelementptr inbounds i32, ptr %81, i64 %84
  store i32 %80, ptr %85, align 4, !tbaa !57
  br label %86

86:                                               ; preds = %73
  %87 = load i32, ptr %5, align 4, !tbaa !57
  %88 = add nsw i32 %87, 1
  store i32 %88, ptr %5, align 4, !tbaa !57
  br label %70, !llvm.loop !80

89:                                               ; preds = %70
  call void @llvm.lifetime.end.p0(i64 4, ptr %6) #3
  call void @llvm.lifetime.end.p0(i64 4, ptr %5) #3
  call void @llvm.lifetime.end.p0(i64 8, ptr %4) #3
  call void @llvm.lifetime.end.p0(i64 8, ptr %3) #3
  ret void
}

; Function Attrs: nounwind uwtable
define internal void @start_pass_2_quant(ptr noundef %0, i32 noundef %1) #0 {
  %3 = alloca ptr, align 8
  %4 = alloca i32, align 4
  %5 = alloca ptr, align 8
  %6 = alloca ptr, align 8
  %7 = alloca i32, align 4
  %8 = alloca i64, align 8
  store ptr %0, ptr %3, align 8, !tbaa !3
  store i32 %1, ptr %4, align 4, !tbaa !57
  call void @llvm.lifetime.start.p0(i64 8, ptr %5) #3
  %9 = load ptr, ptr %3, align 8, !tbaa !3
  %10 = getelementptr inbounds nuw %struct.jpeg_decompress_struct, ptr %9, i32 0, i32 87
  %11 = load ptr, ptr %10, align 8, !tbaa !42
  store ptr %11, ptr %5, align 8, !tbaa !41
  call void @llvm.lifetime.start.p0(i64 8, ptr %6) #3
  %12 = load ptr, ptr %5, align 8, !tbaa !41
  %13 = getelementptr inbounds nuw %struct.my_cquantizer, ptr %12, i32 0, i32 3
  %14 = load ptr, ptr %13, align 8, !tbaa !56
  store ptr %14, ptr %6, align 8, !tbaa !70
  call void @llvm.lifetime.start.p0(i64 4, ptr %7) #3
  %15 = load ptr, ptr %3, align 8, !tbaa !3
  %16 = getelementptr inbounds nuw %struct.jpeg_decompress_struct, ptr %15, i32 0, i32 21
  %17 = load i32, ptr %16, align 8, !tbaa !68
  %18 = icmp ne i32 %17, 0
  br i1 %18, label %19, label %22

19:                                               ; preds = %2
  %20 = load ptr, ptr %3, align 8, !tbaa !3
  %21 = getelementptr inbounds nuw %struct.jpeg_decompress_struct, ptr %20, i32 0, i32 21
  store i32 2, ptr %21, align 8, !tbaa !68
  br label %22

22:                                               ; preds = %19, %2
  %23 = load i32, ptr %4, align 4, !tbaa !57
  %24 = icmp ne i32 %23, 0
  br i1 %24, label %25, label %34

25:                                               ; preds = %22
  %26 = load ptr, ptr %5, align 8, !tbaa !41
  %27 = getelementptr inbounds nuw %struct.my_cquantizer, ptr %26, i32 0, i32 0
  %28 = getelementptr inbounds nuw %struct.jpeg_color_quantizer, ptr %27, i32 0, i32 1
  store ptr @prescan_quantize, ptr %28, align 8, !tbaa !71
  %29 = load ptr, ptr %5, align 8, !tbaa !41
  %30 = getelementptr inbounds nuw %struct.my_cquantizer, ptr %29, i32 0, i32 0
  %31 = getelementptr inbounds nuw %struct.jpeg_color_quantizer, ptr %30, i32 0, i32 3
  store ptr @finish_pass1, ptr %31, align 8, !tbaa !72
  %32 = load ptr, ptr %5, align 8, !tbaa !41
  %33 = getelementptr inbounds nuw %struct.my_cquantizer, ptr %32, i32 0, i32 4
  store i32 1, ptr %33, align 8, !tbaa !62
  br label %133

34:                                               ; preds = %22
  %35 = load ptr, ptr %3, align 8, !tbaa !3
  %36 = getelementptr inbounds nuw %struct.jpeg_decompress_struct, ptr %35, i32 0, i32 21
  %37 = load i32, ptr %36, align 8, !tbaa !68
  %38 = icmp eq i32 %37, 2
  br i1 %38, label %39, label %43

39:                                               ; preds = %34
  %40 = load ptr, ptr %5, align 8, !tbaa !41
  %41 = getelementptr inbounds nuw %struct.my_cquantizer, ptr %40, i32 0, i32 0
  %42 = getelementptr inbounds nuw %struct.jpeg_color_quantizer, ptr %41, i32 0, i32 1
  store ptr @pass2_fs_dither, ptr %42, align 8, !tbaa !71
  br label %47

43:                                               ; preds = %34
  %44 = load ptr, ptr %5, align 8, !tbaa !41
  %45 = getelementptr inbounds nuw %struct.my_cquantizer, ptr %44, i32 0, i32 0
  %46 = getelementptr inbounds nuw %struct.jpeg_color_quantizer, ptr %45, i32 0, i32 1
  store ptr @pass2_no_dither, ptr %46, align 8, !tbaa !71
  br label %47

47:                                               ; preds = %43, %39
  %48 = load ptr, ptr %5, align 8, !tbaa !41
  %49 = getelementptr inbounds nuw %struct.my_cquantizer, ptr %48, i32 0, i32 0
  %50 = getelementptr inbounds nuw %struct.jpeg_color_quantizer, ptr %49, i32 0, i32 3
  store ptr @finish_pass2, ptr %50, align 8, !tbaa !72
  %51 = load ptr, ptr %3, align 8, !tbaa !3
  %52 = getelementptr inbounds nuw %struct.jpeg_decompress_struct, ptr %51, i32 0, i32 32
  %53 = load i32, ptr %52, align 4, !tbaa !73
  store i32 %53, ptr %7, align 4, !tbaa !57
  %54 = load i32, ptr %7, align 4, !tbaa !57
  %55 = icmp slt i32 %54, 1
  br i1 %55, label %56, label %72

56:                                               ; preds = %47
  %57 = load ptr, ptr %3, align 8, !tbaa !3
  %58 = getelementptr inbounds nuw %struct.jpeg_decompress_struct, ptr %57, i32 0, i32 0
  %59 = load ptr, ptr %58, align 8, !tbaa !32
  %60 = getelementptr inbounds nuw %struct.jpeg_error_mgr, ptr %59, i32 0, i32 5
  store i32 56, ptr %60, align 8, !tbaa !33
  %61 = load ptr, ptr %3, align 8, !tbaa !3
  %62 = getelementptr inbounds nuw %struct.jpeg_decompress_struct, ptr %61, i32 0, i32 0
  %63 = load ptr, ptr %62, align 8, !tbaa !32
  %64 = getelementptr inbounds nuw %struct.jpeg_error_mgr, ptr %63, i32 0, i32 6
  %65 = getelementptr inbounds [8 x i32], ptr %64, i64 0, i64 0
  store i32 1, ptr %65, align 4, !tbaa !36
  %66 = load ptr, ptr %3, align 8, !tbaa !3
  %67 = getelementptr inbounds nuw %struct.jpeg_decompress_struct, ptr %66, i32 0, i32 0
  %68 = load ptr, ptr %67, align 8, !tbaa !32
  %69 = getelementptr inbounds nuw %struct.jpeg_error_mgr, ptr %68, i32 0, i32 0
  %70 = load ptr, ptr %69, align 8, !tbaa !37
  %71 = load ptr, ptr %3, align 8, !tbaa !3
  call void %70(ptr noundef %71)
  br label %72

72:                                               ; preds = %56, %47
  %73 = load i32, ptr %7, align 4, !tbaa !57
  %74 = icmp sgt i32 %73, 256
  br i1 %74, label %75, label %91

75:                                               ; preds = %72
  %76 = load ptr, ptr %3, align 8, !tbaa !3
  %77 = getelementptr inbounds nuw %struct.jpeg_decompress_struct, ptr %76, i32 0, i32 0
  %78 = load ptr, ptr %77, align 8, !tbaa !32
  %79 = getelementptr inbounds nuw %struct.jpeg_error_mgr, ptr %78, i32 0, i32 5
  store i32 57, ptr %79, align 8, !tbaa !33
  %80 = load ptr, ptr %3, align 8, !tbaa !3
  %81 = getelementptr inbounds nuw %struct.jpeg_decompress_struct, ptr %80, i32 0, i32 0
  %82 = load ptr, ptr %81, align 8, !tbaa !32
  %83 = getelementptr inbounds nuw %struct.jpeg_error_mgr, ptr %82, i32 0, i32 6
  %84 = getelementptr inbounds [8 x i32], ptr %83, i64 0, i64 0
  store i32 256, ptr %84, align 4, !tbaa !36
  %85 = load ptr, ptr %3, align 8, !tbaa !3
  %86 = getelementptr inbounds nuw %struct.jpeg_decompress_struct, ptr %85, i32 0, i32 0
  %87 = load ptr, ptr %86, align 8, !tbaa !32
  %88 = getelementptr inbounds nuw %struct.jpeg_error_mgr, ptr %87, i32 0, i32 0
  %89 = load ptr, ptr %88, align 8, !tbaa !37
  %90 = load ptr, ptr %3, align 8, !tbaa !3
  call void %89(ptr noundef %90)
  br label %91

91:                                               ; preds = %75, %72
  %92 = load ptr, ptr %3, align 8, !tbaa !3
  %93 = getelementptr inbounds nuw %struct.jpeg_decompress_struct, ptr %92, i32 0, i32 21
  %94 = load i32, ptr %93, align 8, !tbaa !68
  %95 = icmp eq i32 %94, 2
  br i1 %95, label %96, label %132

96:                                               ; preds = %91
  call void @llvm.lifetime.start.p0(i64 8, ptr %8) #3
  %97 = load ptr, ptr %3, align 8, !tbaa !3
  %98 = getelementptr inbounds nuw %struct.jpeg_decompress_struct, ptr %97, i32 0, i32 27
  %99 = load i32, ptr %98, align 8, !tbaa !69
  %100 = add i32 %99, 2
  %101 = zext i32 %100 to i64
  %102 = mul i64 %101, 6
  store i64 %102, ptr %8, align 8, !tbaa !74
  %103 = load ptr, ptr %5, align 8, !tbaa !41
  %104 = getelementptr inbounds nuw %struct.my_cquantizer, ptr %103, i32 0, i32 5
  %105 = load ptr, ptr %104, align 8, !tbaa !49
  %106 = icmp eq ptr %105, null
  br i1 %106, label %107, label %118

107:                                              ; preds = %96
  %108 = load ptr, ptr %3, align 8, !tbaa !3
  %109 = getelementptr inbounds nuw %struct.jpeg_decompress_struct, ptr %108, i32 0, i32 1
  %110 = load ptr, ptr %109, align 8, !tbaa !38
  %111 = getelementptr inbounds nuw %struct.jpeg_memory_mgr, ptr %110, i32 0, i32 1
  %112 = load ptr, ptr %111, align 8, !tbaa !58
  %113 = load ptr, ptr %3, align 8, !tbaa !3
  %114 = load i64, ptr %8, align 8, !tbaa !74
  %115 = call ptr %112(ptr noundef %113, i32 noundef 1, i64 noundef %114)
  %116 = load ptr, ptr %5, align 8, !tbaa !41
  %117 = getelementptr inbounds nuw %struct.my_cquantizer, ptr %116, i32 0, i32 5
  store ptr %115, ptr %117, align 8, !tbaa !49
  br label %118

118:                                              ; preds = %107, %96
  %119 = load ptr, ptr %5, align 8, !tbaa !41
  %120 = getelementptr inbounds nuw %struct.my_cquantizer, ptr %119, i32 0, i32 5
  %121 = load ptr, ptr %120, align 8, !tbaa !49
  %122 = load i64, ptr %8, align 8, !tbaa !74
  call void @jzero_far(ptr noundef %121, i64 noundef %122)
  %123 = load ptr, ptr %5, align 8, !tbaa !41
  %124 = getelementptr inbounds nuw %struct.my_cquantizer, ptr %123, i32 0, i32 7
  %125 = load ptr, ptr %124, align 8, !tbaa !50
  %126 = icmp eq ptr %125, null
  br i1 %126, label %127, label %129

127:                                              ; preds = %118
  %128 = load ptr, ptr %3, align 8, !tbaa !3
  call void @init_error_limit(ptr noundef %128)
  br label %129

129:                                              ; preds = %127, %118
  %130 = load ptr, ptr %5, align 8, !tbaa !41
  %131 = getelementptr inbounds nuw %struct.my_cquantizer, ptr %130, i32 0, i32 6
  store i32 0, ptr %131, align 8, !tbaa !75
  call void @llvm.lifetime.end.p0(i64 8, ptr %8) #3
  br label %132

132:                                              ; preds = %129, %91
  br label %133

133:                                              ; preds = %132, %25
  %134 = load ptr, ptr %5, align 8, !tbaa !41
  %135 = getelementptr inbounds nuw %struct.my_cquantizer, ptr %134, i32 0, i32 4
  %136 = load i32, ptr %135, align 8, !tbaa !62
  %137 = icmp ne i32 %136, 0
  br i1 %137, label %138, label %154

138:                                              ; preds = %133
  store i32 0, ptr %7, align 4, !tbaa !57
  br label %139

139:                                              ; preds = %148, %138
  %140 = load i32, ptr %7, align 4, !tbaa !57
  %141 = icmp slt i32 %140, 32
  br i1 %141, label %142, label %151

142:                                              ; preds = %139
  %143 = load ptr, ptr %6, align 8, !tbaa !70
  %144 = load i32, ptr %7, align 4, !tbaa !57
  %145 = sext i32 %144 to i64
  %146 = getelementptr inbounds ptr, ptr %143, i64 %145
  %147 = load ptr, ptr %146, align 8, !tbaa !59
  call void @jzero_far(ptr noundef %147, i64 noundef 4096)
  br label %148

148:                                              ; preds = %142
  %149 = load i32, ptr %7, align 4, !tbaa !57
  %150 = add nsw i32 %149, 1
  store i32 %150, ptr %7, align 4, !tbaa !57
  br label %139, !llvm.loop !76

151:                                              ; preds = %139
  %152 = load ptr, ptr %5, align 8, !tbaa !41
  %153 = getelementptr inbounds nuw %struct.my_cquantizer, ptr %152, i32 0, i32 4
  store i32 0, ptr %153, align 8, !tbaa !62
  br label %154

154:                                              ; preds = %151, %133
  call void @llvm.lifetime.end.p0(i64 4, ptr %7) #3
  call void @llvm.lifetime.end.p0(i64 8, ptr %6) #3
  call void @llvm.lifetime.end.p0(i64 8, ptr %5) #3
  ret void
}