; Function Attrs: nounwind uwtable
define internal void @start_pass_2_quant(ptr noundef %0, i32 noundef %1) #0 {
  %3 = getelementptr inbounds nuw i8, ptr %0, i64 624
  %4 = load ptr, ptr %3, align 8, !tbaa !39
  %5 = getelementptr inbounds nuw i8, ptr %4, i64 56
  %6 = load ptr, ptr %5, align 8, !tbaa !53
  %7 = getelementptr inbounds nuw i8, ptr %0, i64 112
  %8 = load i32, ptr %7, align 8, !tbaa !64
  %.not.not = icmp eq i32 %8, 0
  br i1 %.not.not, label %9, label %.thread44

9:                                                ; preds = %2
  %.not40 = icmp eq i32 %1, 0
  br i1 %.not40, label %13, label %10

.thread44:                                        ; preds = %2
  store i32 2, ptr %7, align 8, !tbaa !64
  %.not4045 = icmp eq i32 %1, 0
  br i1 %.not4045, label %13, label %10

10:                                               ; preds = %.thread44, %9
  %11 = getelementptr inbounds nuw i8, ptr %4, i64 8
  store ptr @prescan_quantize, ptr %11, align 8, !tbaa !70
  %12 = getelementptr inbounds nuw i8, ptr %4, i64 24
  store ptr @finish_pass1, ptr %12, align 8, !tbaa !71
  br label %.sink.split53

13:                                               ; preds = %9, %.thread44
  %pass2_no_dither.sink = phi ptr [ @pass2_fs_dither, %.thread44 ], [ @pass2_no_dither, %9 ]
  %14 = getelementptr inbounds nuw i8, ptr %4, i64 8
  store ptr %pass2_no_dither.sink, ptr %14, align 8, !tbaa !70
  %15 = getelementptr inbounds nuw i8, ptr %4, i64 24
  store ptr @finish_pass2, ptr %15, align 8, !tbaa !71
  %16 = getelementptr inbounds nuw i8, ptr %0, i64 156
  %17 = load i32, ptr %16, align 4, !tbaa !72
  %18 = icmp slt i32 %17, 1
  br i1 %18, label %.sink.split, label %19

19:                                               ; preds = %13
  %20 = icmp samesign ugt i32 %17, 256
  br i1 %20, label %.sink.split, label %26

.sink.split:                                      ; preds = %19, %13
  %.sink50 = phi i32 [ 56, %13 ], [ 57, %19 ]
  %.sink = phi i32 [ 1, %13 ], [ 256, %19 ]
  %21 = load ptr, ptr %0, align 8, !tbaa !30
  %22 = getelementptr inbounds nuw i8, ptr %21, i64 40
  store i32 %.sink50, ptr %22, align 8, !tbaa !31
  %23 = getelementptr inbounds nuw i8, ptr %21, i64 44
  store i32 %.sink, ptr %23, align 4, !tbaa !34
  %24 = load ptr, ptr %0, align 8, !tbaa !30
  %25 = load ptr, ptr %24, align 8, !tbaa !35
  tail call void %25(ptr noundef nonnull %0) #9
  br label %26

26:                                               ; preds = %.sink.split, %19
  %27 = load i32, ptr %7, align 8, !tbaa !64
  %28 = icmp eq i32 %27, 2
  br i1 %28, label %29, label %73

29:                                               ; preds = %26
  %30 = getelementptr inbounds nuw i8, ptr %0, i64 136
  %31 = load i32, ptr %30, align 8, !tbaa !65
  %32 = add i32 %31, 2
  %33 = zext i32 %32 to i64
  %34 = mul nuw nsw i64 %33, 6
  %35 = getelementptr inbounds nuw i8, ptr %4, i64 72
  %36 = load ptr, ptr %35, align 8, !tbaa !46
  %37 = icmp eq ptr %36, null
  br i1 %37, label %38, label %44

38:                                               ; preds = %29
  %39 = getelementptr inbounds nuw i8, ptr %0, i64 8
  %40 = load ptr, ptr %39, align 8, !tbaa !36
  %41 = getelementptr inbounds nuw i8, ptr %40, i64 8
  %42 = load ptr, ptr %41, align 8, !tbaa !54
  %43 = tail call ptr %42(ptr noundef nonnull %0, i32 noundef 1, i64 noundef %34) #9
  store ptr %43, ptr %35, align 8, !tbaa !46
  br label %44

44:                                               ; preds = %38, %29
  %45 = phi ptr [ %43, %38 ], [ %36, %29 ]
  tail call void @jzero_far(ptr noundef %45, i64 noundef %34) #9
  %46 = getelementptr inbounds nuw i8, ptr %4, i64 88
  %47 = load ptr, ptr %46, align 8, !tbaa !47
  %48 = icmp eq ptr %47, null
  br i1 %48, label %49, label %.sink.split53

49:                                               ; preds = %44
  %50 = load ptr, ptr %3, align 8, !tbaa !39
  %51 = getelementptr inbounds nuw i8, ptr %0, i64 8
  %52 = load ptr, ptr %51, align 8, !tbaa !36
  %53 = load ptr, ptr %52, align 8, !tbaa !37
  %54 = tail call ptr %53(ptr noundef nonnull %0, i32 noundef 1, i64 noundef 2044) #9
  %55 = getelementptr inbounds nuw i8, ptr %54, i64 1020
  %56 = getelementptr inbounds nuw i8, ptr %50, i64 88
  store ptr %55, ptr %56, align 8, !tbaa !47
  br label %57

57:                                               ; preds = %57, %49
  %indvars.iv.i = phi i64 [ 0, %49 ], [ %indvars.iv.next.i, %57 ]
  %indvars45.i = trunc i64 %indvars.iv.i to i32
  %58 = getelementptr inbounds nuw i32, ptr %55, i64 %indvars.iv.i
  store i32 %indvars45.i, ptr %58, align 4, !tbaa !66
  %59 = sub nsw i32 0, %indvars45.i
  %60 = sub nsw i64 0, %indvars.iv.i
  %61 = getelementptr inbounds i32, ptr %55, i64 %60
  store i32 %59, ptr %61, align 4, !tbaa !66
  %indvars.iv.next.i = add nuw nsw i64 %indvars.iv.i, 1
  %exitcond.not.i = icmp eq i64 %indvars.iv.next.i, 16
  br i1 %exitcond.not.i, label %.lr.ph.i, label %57, !llvm.loop !67

.lr.ph.i:                                         ; preds = %57, %.lr.ph.i
  %indvars.iv48.i = phi i64 [ %indvars.iv.next49.i, %.lr.ph.i ], [ 16, %57 ]
  %.138.i = phi i32 [ %68, %.lr.ph.i ], [ 16, %57 ]
  %62 = getelementptr inbounds nuw i32, ptr %55, i64 %indvars.iv48.i
  store i32 %.138.i, ptr %62, align 4, !tbaa !66
  %63 = sub nsw i32 0, %.138.i
  %64 = sub nsw i64 0, %indvars.iv48.i
  %65 = getelementptr inbounds i32, ptr %55, i64 %64
  store i32 %63, ptr %65, align 4, !tbaa !66
  %indvars.iv.next49.i = add nuw nsw i64 %indvars.iv48.i, 1
  %66 = trunc nuw nsw i64 %indvars.iv48.i to i32
  %67 = and i32 %66, 1
  %68 = add nuw nsw i32 %67, %.138.i
  %exitcond51.not.i = icmp eq i64 %indvars.iv.next49.i, 48
  br i1 %exitcond51.not.i, label %.lr.ph41.i, label %.lr.ph.i, !llvm.loop !68

.lr.ph41.i:                                       ; preds = %.lr.ph.i, %.lr.ph41.i
  %indvars.iv52.i = phi i64 [ %indvars.iv.next53.i, %.lr.ph41.i ], [ 48, %.lr.ph.i ]
  %69 = getelementptr inbounds nuw i32, ptr %55, i64 %indvars.iv52.i
  store i32 32, ptr %69, align 4, !tbaa !66
  %70 = sub nsw i64 0, %indvars.iv52.i
  %71 = getelementptr inbounds i32, ptr %55, i64 %70
  store i32 -32, ptr %71, align 4, !tbaa !66
  %indvars.iv.next53.i = add nuw nsw i64 %indvars.iv52.i, 1
  %exitcond55.not.i = icmp eq i64 %indvars.iv.next53.i, 256
  br i1 %exitcond55.not.i, label %.sink.split53, label %.lr.ph41.i, !llvm.loop !69

.sink.split53:                                    ; preds = %.lr.ph41.i, %44, %10
  %.sink56 = phi i64 [ 64, %10 ], [ 80, %44 ], [ 80, %.lr.ph41.i ]
  %.sink54 = phi i32 [ 1, %10 ], [ 0, %44 ], [ 0, %.lr.ph41.i ]
  %72 = getelementptr inbounds nuw i8, ptr %4, i64 %.sink56
  store i32 %.sink54, ptr %72, align 8, !tbaa !66
  br label %73

73:                                               ; preds = %.sink.split53, %26
  %74 = getelementptr inbounds nuw i8, ptr %4, i64 64
  %75 = load i32, ptr %74, align 8, !tbaa !58
  %.not41 = icmp eq i32 %75, 0
  br i1 %.not41, label %79, label %.preheader

.preheader:                                       ; preds = %73, %.preheader
  %indvars.iv = phi i64 [ %indvars.iv.next, %.preheader ], [ 0, %73 ]
  %76 = getelementptr inbounds nuw ptr, ptr %6, i64 %indvars.iv
  %77 = load ptr, ptr %76, align 8, !tbaa !55
  tail call void @jzero_far(ptr noundef %77, i64 noundef 4096) #9
  %indvars.iv.next = add nuw nsw i64 %indvars.iv, 1
  %exitcond.not = icmp eq i64 %indvars.iv.next, 32
  br i1 %exitcond.not, label %78, label %.preheader, !llvm.loop !73

78:                                               ; preds = %.preheader
  store i32 0, ptr %74, align 8, !tbaa !58
  br label %79

79:                                               ; preds = %78, %73
  ret void
}